; Function Attrs: mustprogress nofree norecurse nosync nounwind willreturn memory(readwrite, inaccessiblemem: none) uwtable
define void @_ZN7rocksdb10GetContext16PostprocessMergeERKNS_6StatusE(ptr noundef nonnull align 8 captures(none) dereferenceable(512) %0, ptr noundef nonnull readonly align 8 captures(none) dereferenceable(16) %1) local_unnamed_addr #11 align 2 {
  %3 = load i8, ptr %1, align 8, !tbaa !125
  %4 = icmp eq i8 %3, 0
  br i1 %4, label %12, label %5

5:                                                ; preds = %2
  %6 = getelementptr inbounds nuw i8, ptr %1, i64 1
  %7 = load i8, ptr %6, align 1, !tbaa !184
  %8 = icmp eq i8 %7, 15
  %9 = getelementptr inbounds nuw i8, ptr %0, i64 264
  br i1 %8, label %10, label %11

10:                                               ; preds = %5
  store i32 6, ptr %9, align 8, !tbaa !45
  br label %22

11:                                               ; preds = %5
  store i32 3, ptr %9, align 8, !tbaa !45
  br label %22

12:                                               ; preds = %2
  %13 = getelementptr inbounds nuw i8, ptr %0, i64 384
  %14 = load ptr, ptr %13, align 8, !tbaa !54
  %.not = icmp eq ptr %14, null
  br i1 %.not, label %22, label %15, !prof !87

15:                                               ; preds = %12
  %16 = getelementptr inbounds nuw i8, ptr %14, i64 80
  %17 = load ptr, ptr %16, align 8, !tbaa !53
  %18 = load ptr, ptr %17, align 8, !tbaa !11
  store ptr %18, ptr %14, align 8, !tbaa !49
  %19 = getelementptr inbounds nuw i8, ptr %17, i64 8
  %20 = load i64, ptr %19, align 8, !tbaa !16
  %21 = getelementptr inbounds nuw i8, ptr %14, i64 8
  store i64 %20, ptr %21, align 8, !tbaa !50
  br label %22

22:                                               ; preds = %10, %11, %15, %12
  ret void
}